target datalayout = "e-m:e-p270:32:32-p271:32:32-p272:64:64-i64:64-i128:128-f80:128-n8:16:32:64-S128"
target triple = "x86_64-pc-linux-gnu"

%struct.mbedtls_asn1_sequence = type { %struct.mbedtls_asn1_buf, ptr }
%struct.mbedtls_asn1_buf = type { i32, i64, ptr }

; Function Attrs: mustprogress uwtable
define hidden void @mbedtls_asn1_sequence_free(ptr noundef %0) #2 {
  %2 = alloca ptr, align 8
  %3 = alloca ptr, align 8
  store ptr %0, ptr %2, align 8, !tbaa !32
  br label %4

4:                                                ; preds = %7, %1
  %5 = load ptr, ptr %2, align 8, !tbaa !32
  %6 = icmp ne ptr %5, null
  br i1 %6, label %7, label %14

7:                                                ; preds = %4
  call void @llvm.lifetime.start.p0(i64 8, ptr %3) #8
  %8 = load ptr, ptr %2, align 8, !tbaa !32
  %9 = getelementptr inbounds nuw %struct.mbedtls_asn1_sequence, ptr %8, i32 0, i32 1
  %10 = load ptr, ptr %9, align 8, !tbaa !34
  store ptr %10, ptr %3, align 8, !tbaa !32
  %11 = load ptr, ptr %2, align 8, !tbaa !32
  call void @mbedtls_platform_zeroize(ptr noundef %11, i64 noundef 32)
  %12 = load ptr, ptr %2, align 8, !tbaa !32
  call void @free(ptr noundef %12) #8
  %13 = load ptr, ptr %3, align 8, !tbaa !32
  store ptr %13, ptr %2, align 8, !tbaa !32
  call void @llvm.lifetime.end.p0(i64 8, ptr %3) #8
  br label %4, !llvm.loop !37

14:                                               ; preds = %4
  ret void
}