; Function Attrs: mustprogress uwtable
define hidden void @mbedtls_asn1_sequence_free(ptr noundef %0) local_unnamed_addr #3 {
  %.not5 = icmp eq ptr %0, null
  br i1 %.not5, label %._crit_edge, label %.lr.ph

.lr.ph:                                           ; preds = %1, %.lr.ph
  %.06 = phi ptr [ %3, %.lr.ph ], [ %0, %1 ]
  %2 = getelementptr inbounds nuw i8, ptr %.06, i64 24
  %3 = load ptr, ptr %2, align 8, !tbaa !21
  tail call void @mbedtls_platform_zeroize(ptr noundef nonnull %.06, i64 noundef 32)
  tail call void @free(ptr noundef nonnull %.06) #11
  %.not = icmp eq ptr %3, null
  br i1 %.not, label %._crit_edge, label %.lr.ph, !llvm.loop !25

._crit_edge:                                      ; preds = %.lr.ph, %1
  ret void
}